; Function Attrs: nounwind uwtable
define dso_local signext i16 @extractNotNullColumn(ptr noundef %0) local_unnamed_addr #0 {
  %2 = tail call i64 @SysCacheGetAttrNotNull(i32 noundef 19, ptr noundef %0, i16 noundef signext 21) #12
  %3 = inttoptr i64 %2 to ptr
  %4 = tail call ptr @pg_detoast_datum(ptr noundef %3) #12
  %5 = getelementptr inbounds nuw i8, ptr %4, i64 4
  %6 = load i32, ptr %5, align 4
  %.not = icmp eq i32 %6, 1
  br i1 %.not, label %7, label %16

7:                                                ; preds = %1
  %8 = getelementptr inbounds nuw i8, ptr %4, i64 8
  %9 = load i32, ptr %8, align 4
  %.not10 = icmp eq i32 %9, 0
  br i1 %.not10, label %10, label %16

10:                                               ; preds = %7
  %11 = getelementptr inbounds nuw i8, ptr %4, i64 12
  %12 = load i32, ptr %11, align 4
  %.not11 = icmp eq i32 %12, 21
  br i1 %.not11, label %13, label %16

13:                                               ; preds = %10
  %14 = getelementptr inbounds nuw i8, ptr %4, i64 16
  %15 = load i32, ptr %14, align 4
  %.not12 = icmp eq i32 %15, 1
  br i1 %.not12, label %19, label %16

16:                                               ; preds = %13, %10, %7, %1
  %17 = tail call zeroext i1 @errstart_cold(i32 noundef 21, ptr noundef null) #14
  tail call void @llvm.assume(i1 %17)
  %18 = tail call i32 (ptr, ...) @errmsg_internal(ptr noundef nonnull @.str.1) #12
  tail call void @errfinish(ptr noundef nonnull @.str.2, i32 noundef 711, ptr noundef nonnull @__func__.extractNotNullColumn) #12
  unreachable

19:                                               ; preds = %13
  %20 = getelementptr inbounds nuw i8, ptr %4, i64 24
  %21 = load i16, ptr %20, align 2
  ret i16 %21
}